; ModuleID = '8/576.c'
source_filename = "8/576.c"
target datalayout = "e-m:e-p270:32:32-p271:32:32-p272:64:64-i64:64-f80:128-n8:16:32:64-S128"
target triple = "x86_64-pc-linux-gnu"

@flag = dso_local global i32 0, align 4
@.str = private unnamed_addr constant [2 x i8] c" \00", align 1
@.str.1 = private unnamed_addr constant [3 x i8] c"%d\00", align 1
@.str.2 = private unnamed_addr constant [5 x i8] c"%d%d\00", align 1
@n1 = common dso_local global i32 0, align 4
@n2 = common dso_local global i32 0, align 4
@k = common dso_local global i32 0, align 4
@a = common dso_local global [100 x i32] zeroinitializer, align 16
@b = common dso_local global [100 x i32] zeroinitializer, align 16

; Function Attrs: noinline nounwind uwtable
define dso_local i32 @paixu(i32 %0, i32* %1) #0 {
  %3 = alloca i32, align 4
  %4 = alloca i32, align 4
  %5 = alloca i32*, align 8
  %6 = alloca i32, align 4
  %7 = alloca i32, align 4
  store i32 %0, i32* %4, align 4
  store i32* %1, i32** %5, align 8
  store i32 1, i32* %6, align 4
  br label %8

8:                                                ; preds = %86, %2
  %9 = load i32, i32* %6, align 4
  %10 = load i32, i32* %4, align 4
  %11 = icmp sle i32 %9, %10
  br i1 %11, label %12, label %89

12:                                               ; preds = %8
  store i32 1, i32* %7, align 4
  br label %13

13:                                               ; preds = %82, %12
  %14 = load i32, i32* %7, align 4
  %15 = load i32, i32* %4, align 4
  %16 = sub nsw i32 %15, 1
  %17 = icmp sle i32 %14, %16
  br i1 %17, label %18, label %85

18:                                               ; preds = %13
  %19 = load i32*, i32** %5, align 8
  %20 = load i32, i32* %7, align 4
  %21 = sext i32 %20 to i64
  %22 = getelementptr inbounds i32, i32* %19, i64 %21
  %23 = load i32, i32* %22, align 4
  %24 = load i32*, i32** %5, align 8
  %25 = load i32, i32* %7, align 4
  %26 = add nsw i32 %25, 1
  %27 = sext i32 %26 to i64
  %28 = getelementptr inbounds i32, i32* %24, i64 %27
  %29 = load i32, i32* %28, align 4
  %30 = icmp sgt i32 %23, %29
  br i1 %30, label %31, label %81

31:                                               ; preds = %18
  %32 = load i32*, i32** %5, align 8
  %33 = load i32, i32* %7, align 4
  %34 = sext i32 %33 to i64
  %35 = getelementptr inbounds i32, i32* %32, i64 %34
  %36 = load i32, i32* %35, align 4
  %37 = load i32*, i32** %5, align 8
  %38 = load i32, i32* %7, align 4
  %39 = add nsw i32 %38, 1
  %40 = sext i32 %39 to i64
  %41 = getelementptr inbounds i32, i32* %37, i64 %40
  %42 = load i32, i32* %41, align 4
  %43 = add nsw i32 %36, %42
  %44 = load i32*, i32** %5, align 8
  %45 = load i32, i32* %7, align 4
  %46 = sext i32 %45 to i64
  %47 = getelementptr inbounds i32, i32* %44, i64 %46
  store i32 %43, i32* %47, align 4
  %48 = load i32*, i32** %5, align 8
  %49 = load i32, i32* %7, align 4
  %50 = sext i32 %49 to i64
  %51 = getelementptr inbounds i32, i32* %48, i64 %50
  %52 = load i32, i32* %51, align 4
  %53 = load i32*, i32** %5, align 8
  %54 = load i32, i32* %7, align 4
  %55 = add nsw i32 %54, 1
  %56 = sext i32 %55 to i64
  %57 = getelementptr inbounds i32, i32* %53, i64 %56
  %58 = load i32, i32* %57, align 4
  %59 = sub nsw i32 %52, %58
  %60 = load i32*, i32** %5, align 8
  %61 = load i32, i32* %7, align 4
  %62 = add nsw i32 %61, 1
  %63 = sext i32 %62 to i64
  %64 = getelementptr inbounds i32, i32* %60, i64 %63
  store i32 %59, i32* %64, align 4
  %65 = load i32*, i32** %5, align 8
  %66 = load i32, i32* %7, align 4
  %67 = sext i32 %66 to i64
  %68 = getelementptr inbounds i32, i32* %65, i64 %67
  %69 = load i32, i32* %68, align 4
  %70 = load i32*, i32** %5, align 8
  %71 = load i32, i32* %7, align 4
  %72 = add nsw i32 %71, 1
  %73 = sext i32 %72 to i64
  %74 = getelementptr inbounds i32, i32* %70, i64 %73
  %75 = load i32, i32* %74, align 4
  %76 = sub nsw i32 %69, %75
  %77 = load i32*, i32** %5, align 8
  %78 = load i32, i32* %7, align 4
  %79 = sext i32 %78 to i64
  %80 = getelementptr inbounds i32, i32* %77, i64 %79
  store i32 %76, i32* %80, align 4
  br label %81

81:                                               ; preds = %31, %18
  br label %82

82:                                               ; preds = %81
  %83 = load i32, i32* %7, align 4
  %84 = add nsw i32 %83, 1
  store i32 %84, i32* %7, align 4
  br label %13

85:                                               ; preds = %13
  br label %86

86:                                               ; preds = %85
  %87 = load i32, i32* %6, align 4
  %88 = add nsw i32 %87, 1
  store i32 %88, i32* %6, align 4
  br label %8

89:                                               ; preds = %8
  %90 = load i32, i32* %3, align 4
  ret i32 %90
}

; Function Attrs: noinline nounwind uwtable
define dso_local i32 @output(i32 %0, i32* %1) #0 {
  %3 = alloca i32, align 4
  %4 = alloca i32, align 4
  %5 = alloca i32*, align 8
  %6 = alloca i32, align 4
  store i32 %0, i32* %4, align 4
  store i32* %1, i32** %5, align 8
  store i32 1, i32* %6, align 4
  br label %7

7:                                                ; preds = %23, %2
  %8 = load i32, i32* %6, align 4
  %9 = load i32, i32* %4, align 4
  %10 = icmp sle i32 %8, %9
  br i1 %10, label %11, label %26

11:                                               ; preds = %7
  %12 = load i32, i32* @flag, align 4
  %13 = icmp ne i32 %12, 0
  br i1 %13, label %14, label %16

14:                                               ; preds = %11
  %15 = call i32 (i8*, ...) @printf(i8* getelementptr inbounds ([2 x i8], [2 x i8]* @.str, i64 0, i64 0))
  br label %16

16:                                               ; preds = %14, %11
  %17 = load i32*, i32** %5, align 8
  %18 = load i32, i32* %6, align 4
  %19 = sext i32 %18 to i64
  %20 = getelementptr inbounds i32, i32* %17, i64 %19
  %21 = load i32, i32* %20, align 4
  %22 = call i32 (i8*, ...) @printf(i8* getelementptr inbounds ([3 x i8], [3 x i8]* @.str.1, i64 0, i64 0), i32 %21)
  store i32 1, i32* @flag, align 4
  br label %23

23:                                               ; preds = %16
  %24 = load i32, i32* %6, align 4
  %25 = add nsw i32 %24, 1
  store i32 %25, i32* %6, align 4
  br label %7

26:                                               ; preds = %7
  %27 = load i32, i32* %3, align 4
  ret i32 %27
}

declare dso_local i32 @printf(i8*, ...) #1

; Function Attrs: noinline nounwind uwtable
define dso_local i32 @main() #0 {
  %1 = alloca i32, align 4
  store i32 0, i32* %1, align 4
  %2 = call i32 (i8*, ...) @__isoc99_scanf(i8* getelementptr inbounds ([5 x i8], [5 x i8]* @.str.2, i64 0, i64 0), i32* @n1, i32* @n2)
  store i32 1, i32* @k, align 4
  br label %3

3:                                                ; preds = %12, %0
  %4 = load i32, i32* @k, align 4
  %5 = load i32, i32* @n1, align 4
  %6 = icmp sle i32 %4, %5
  br i1 %6, label %7, label %15

7:                                                ; preds = %3
  %8 = load i32, i32* @k, align 4
  %9 = sext i32 %8 to i64
  %10 = getelementptr inbounds [100 x i32], [100 x i32]* @a, i64 0, i64 %9
  %11 = call i32 (i8*, ...) @__isoc99_scanf(i8* getelementptr inbounds ([3 x i8], [3 x i8]* @.str.1, i64 0, i64 0), i32* %10)
  br label %12

12:                                               ; preds = %7
  %13 = load i32, i32* @k, align 4
  %14 = add nsw i32 %13, 1
  store i32 %14, i32* @k, align 4
  br label %3

15:                                               ; preds = %3
  store i32 1, i32* @k, align 4
  br label %16

16:                                               ; preds = %25, %15
  %17 = load i32, i32* @k, align 4
  %18 = load i32, i32* @n2, align 4
  %19 = icmp sle i32 %17, %18
  br i1 %19, label %20, label %28

20:                                               ; preds = %16
  %21 = load i32, i32* @k, align 4
  %22 = sext i32 %21 to i64
  %23 = getelementptr inbounds [100 x i32], [100 x i32]* @b, i64 0, i64 %22
  %24 = call i32 (i8*, ...) @__isoc99_scanf(i8* getelementptr inbounds ([3 x i8], [3 x i8]* @.str.1, i64 0, i64 0), i32* %23)
  br label %25

25:                                               ; preds = %20
  %26 = load i32, i32* @k, align 4
  %27 = add nsw i32 %26, 1
  store i32 %27, i32* @k, align 4
  br label %16

28:                                               ; preds = %16
  %29 = load i32, i32* @n1, align 4
  %30 = call i32 @paixu(i32 %29, i32* getelementptr inbounds ([100 x i32], [100 x i32]* @a, i64 0, i64 0))
  %31 = load i32, i32* @n2, align 4
  %32 = call i32 @paixu(i32 %31, i32* getelementptr inbounds ([100 x i32], [100 x i32]* @b, i64 0, i64 0))
  %33 = load i32, i32* @n1, align 4
  %34 = call i32 @output(i32 %33, i32* getelementptr inbounds ([100 x i32], [100 x i32]* @a, i64 0, i64 0))
  %35 = load i32, i32* @n2, align 4
  %36 = call i32 @output(i32 %35, i32* getelementptr inbounds ([100 x i32], [100 x i32]* @b, i64 0, i64 0))
  %37 = load i32, i32* %1, align 4
  ret i32 %37
}

declare dso_local i32 @__isoc99_scanf(i8*, ...) #1


!llvm.module.flags = !{!0}
!llvm.ident = !{!1}

!0 = !{i32 1, !"wchar_size", i32 4}
!1 = !{!"clang version 10.0.0-4ubuntu1 "}
